; Function Attrs: nounwind uwtable
define dso_local ptr @_PyNamespace_New(ptr noundef %0) local_unnamed_addr #0 {
  %2 = load ptr, ptr getelementptr inbounds nuw (i8, ptr @_PyNamespace_Type, i64 304), align 8, !tbaa !32
  %3 = tail call ptr %2(ptr noundef nonnull @_PyNamespace_Type, i64 noundef 0) #3
  %.not.i10 = icmp eq ptr %3, null
  br i1 %.not.i10, label %Py_DECREF.exit, label %4

4:                                                ; preds = %1
  %5 = tail call ptr @PyDict_New() #3
  %6 = getelementptr inbounds nuw i8, ptr %3, i64 16
  store ptr %5, ptr %6, align 8, !tbaa !24
  %.not11.i = icmp eq ptr %5, null
  br i1 %.not11.i, label %7, label %namespace_new.exit

7:                                                ; preds = %4
  %8 = load i32, ptr %3, align 8, !tbaa !9
  %.not.i.i = icmp sgt i32 %8, -1
  br i1 %.not.i.i, label %9, label %Py_DECREF.exit

9:                                                ; preds = %7
  %10 = add nsw i32 %8, -1
  store i32 %10, ptr %3, align 8, !tbaa !9
  %11 = icmp eq i32 %10, 0
  br i1 %11, label %Py_DECREF.exit.sink.split, label %Py_DECREF.exit

namespace_new.exit:                               ; preds = %4
  %12 = icmp eq ptr %0, null
  br i1 %12, label %Py_DECREF.exit, label %13

13:                                               ; preds = %namespace_new.exit
  %14 = tail call i32 @PyDict_Update(ptr noundef nonnull %5, ptr noundef nonnull %0) #3
  %.not = icmp eq i32 %14, 0
  br i1 %.not, label %Py_DECREF.exit, label %15

15:                                               ; preds = %13
  %16 = load i32, ptr %3, align 8, !tbaa !9
  %.not.i = icmp sgt i32 %16, -1
  br i1 %.not.i, label %17, label %Py_DECREF.exit

17:                                               ; preds = %15
  %18 = add nsw i32 %16, -1
  store i32 %18, ptr %3, align 8, !tbaa !9
  %19 = icmp eq i32 %18, 0
  br i1 %19, label %Py_DECREF.exit.sink.split, label %Py_DECREF.exit

Py_DECREF.exit.sink.split:                        ; preds = %17, %9
  tail call void @_Py_Dealloc(ptr noundef nonnull %3) #3
  br label %Py_DECREF.exit

Py_DECREF.exit:                                   ; preds = %Py_DECREF.exit.sink.split, %9, %7, %1, %17, %15, %13, %namespace_new.exit
  %.0 = phi ptr [ %3, %namespace_new.exit ], [ %3, %13 ], [ null, %15 ], [ null, %17 ], [ null, %1 ], [ null, %7 ], [ null, %9 ], [ null, %Py_DECREF.exit.sink.split ]
  ret ptr %.0
}